---
triple:          'arm64-apple-darwin'
binary-path:     '/Users/canozaydin/Projects/Neetcode/Arrays_and_Hashing/Anagram_Checker/bin/program'
relocations:
  - { offsetInCU: 0x9D56, offset: 0x9D56, size: 0x8, addend: 0x0, symName: __ZStL8__ioinit, symObjAddr: 0x3ED50, symBinAddr: 0x10000C000, symSize: 0x0 }
  - { offsetInCU: 0xA3FF, offset: 0xA3FF, size: 0x8, addend: 0x0, symName: __ZNSt10_Head_baseILm0EOcLb0EE7_M_headERS1_, symObjAddr: 0x25F8, symBinAddr: 0x1000055AC, symSize: 0x18 }
  - { offsetInCU: 0xA426, offset: 0xA426, size: 0x8, addend: 0x0, symName: __ZNSt10_Head_baseILm0ERKcLb0EE7_M_headERS2_, symObjAddr: 0x25E0, symBinAddr: 0x100005594, symSize: 0x18 }
  - { offsetInCU: 0xA44D, offset: 0xA44D, size: 0x8, addend: 0x0, symName: __ZNSt11_Tuple_implILm0EJOcEE7_M_headERS1_, symObjAddr: 0x25C4, symBinAddr: 0x100005578, symSize: 0x1C }
  - { offsetInCU: 0xA475, offset: 0xA475, size: 0x8, addend: 0x0, symName: __ZNSt11_Tuple_implILm0EJRKcEE7_M_headERS2_, symObjAddr: 0x25A8, symBinAddr: 0x10000555C, symSize: 0x1C }
  - { offsetInCU: 0xA49D, offset: 0xA49D, size: 0x8, addend: 0x0, symName: __ZSt12__get_helperILm0EOcJEERT0_RSt11_Tuple_implIXT_EJS1_DpT1_EE, symObjAddr: 0x258C, symBinAddr: 0x100005540, symSize: 0x1C }
  - { offsetInCU: 0xA4DD, offset: 0xA4DD, size: 0x8, addend: 0x0, symName: __ZSt12__get_helperILm0ERKcJEERT0_RSt11_Tuple_implIXT_EJS2_DpT1_EE, symObjAddr: 0x2570, symBinAddr: 0x100005524, symSize: 0x1C }
  - { offsetInCU: 0xA523, offset: 0xA523, size: 0x8, addend: 0x0, symName: __ZSt7forwardIOcEOT_RNSt16remove_referenceIS1_E4typeE, symObjAddr: 0x255C, symBinAddr: 0x100005510, symSize: 0x14 }
  - { offsetInCU: 0xA553, offset: 0xA553, size: 0x8, addend: 0x0, symName: __ZSt3getILm0EJOcEERNSt13tuple_elementIXT_ESt5tupleIJDpT0_EEE4typeERS5_, symObjAddr: 0x2540, symBinAddr: 0x1000054F4, symSize: 0x1C }
  - { offsetInCU: 0xA599, offset: 0xA599, size: 0x8, addend: 0x0, symName: __ZNK9__gnu_cxx16__aligned_bufferISt4pairIKciEE7_M_addrEv, symObjAddr: 0x252C, symBinAddr: 0x1000054E0, symSize: 0x14 }
  - { offsetInCU: 0xA5C2, offset: 0xA5C2, size: 0x8, addend: 0x0, symName: __ZSt7forwardIRKcEOT_RNSt16remove_referenceIS2_E4typeE, symObjAddr: 0x2518, symBinAddr: 0x1000054CC, symSize: 0x14 }
  - { offsetInCU: 0xA5F2, offset: 0xA5F2, size: 0x8, addend: 0x0, symName: __ZSt3getILm0EJRKcEERNSt13tuple_elementIXT_ESt5tupleIJDpT0_EEE4typeERS6_, symObjAddr: 0x24FC, symBinAddr: 0x1000054B0, symSize: 0x1C }
  - { offsetInCU: 0xA701, offset: 0xA701, size: 0x8, addend: 0x0, symName: __ZNSt4pairIKciEC1IJOcEJLm0EEJEJEEERSt5tupleIJDpT_EERS4_IJDpT1_EESt12_Index_tupleIJXspT0_EEESD_IJXspT2_EEE, symObjAddr: 0x24B4, symBinAddr: 0x100005468, symSize: 0x48 }
  - { offsetInCU: 0xA70E, offset: 0xA70E, size: 0x8, addend: 0x0, symName: __ZNK9__gnu_cxx16__aligned_bufferISt4pairIKciEE6_M_ptrEv, symObjAddr: 0x2498, symBinAddr: 0x10000544C, symSize: 0x1C }
  - { offsetInCU: 0xA737, offset: 0xA737, size: 0x8, addend: 0x0, symName: __ZNSt15__new_allocatorIPNSt8__detail15_Hash_node_baseEE8allocateEmPKv, symObjAddr: 0x241C, symBinAddr: 0x1000053D0, symSize: 0x7C }
  - { offsetInCU: 0xA890, offset: 0xA890, size: 0x8, addend: 0x0, symName: __ZNSt4pairIKciEC1IJRS0_EJLm0EEJEJEEERSt5tupleIJDpT_EERS4_IJDpT1_EESt12_Index_tupleIJXspT0_EEESD_IJXspT2_EEE, symObjAddr: 0x23D4, symBinAddr: 0x100005388, symSize: 0x48 }
  - { offsetInCU: 0xA89B, offset: 0xA89B, size: 0x8, addend: 0x0, symName: __ZNKSt8__detail21_Hashtable_ebo_helperILi0ESt8equal_toIcELb1EE7_M_cgetEv, symObjAddr: 0x23C0, symBinAddr: 0x100005374, symSize: 0x14 }
  - { offsetInCU: 0xA8C0, offset: 0xA8C0, size: 0x8, addend: 0x0, symName: __ZSt11__addressofINSt8__detail10_Hash_nodeISt4pairIKciELb0EEEEPT_RS6_, symObjAddr: 0x23AC, symBinAddr: 0x100005360, symSize: 0x14 }
  - { offsetInCU: 0xA98A, offset: 0xA98A, size: 0x8, addend: 0x0, symName: __ZNSt4pairIKciEC1IJOcEJEEESt21piecewise_construct_tSt5tupleIJDpT_EES5_IJDpT0_EE, symObjAddr: 0x2370, symBinAddr: 0x100005324, symSize: 0x3C }
  - { offsetInCU: 0xA9D7, offset: 0xA9D7, size: 0x8, addend: 0x0, symName: __ZNSt11_Tuple_implILm0EJOcEEC2EOS1_, symObjAddr: 0x2348, symBinAddr: 0x1000052FC, symSize: 0x28 }
  - { offsetInCU: 0xA9E8, offset: 0xA9E8, size: 0x8, addend: 0x0, symName: __ZSt7forwardIRKSt4pairIKciEEOT_RNSt16remove_referenceIS5_E4typeE, symObjAddr: 0x2334, symBinAddr: 0x1000052E8, symSize: 0x14 }
  - { offsetInCU: 0xAA2D, offset: 0xAA2D, size: 0x8, addend: 0x0, symName: __ZSt12__to_addressIPNSt8__detail15_Hash_node_baseEEPT_S4_, symObjAddr: 0x2320, symBinAddr: 0x1000052D4, symSize: 0x14 }
  - { offsetInCU: 0xAB1D, offset: 0xAB1D, size: 0x8, addend: 0x0, symName: __ZNSt4pairIKciEC1IJRS0_EJEEESt21piecewise_construct_tSt5tupleIJDpT_EES5_IJDpT0_EE, symObjAddr: 0x22E4, symBinAddr: 0x100005298, symSize: 0x3C }
  - { offsetInCU: 0xAB69, offset: 0xAB69, size: 0x8, addend: 0x0, symName: __ZNSt11_Tuple_implILm0EJRKcEEC2EOS2_, symObjAddr: 0x22BC, symBinAddr: 0x100005270, symSize: 0x28 }
  - { offsetInCU: 0xAB77, offset: 0xAB77, size: 0x8, addend: 0x0, symName: __ZNKSt8equal_toIcEclERKcS2_, symObjAddr: 0x2288, symBinAddr: 0x10000523C, symSize: 0x34 }
  - { offsetInCU: 0xABC0, offset: 0xABC0, size: 0x8, addend: 0x0, symName: __ZNKSt8__detail15_Hashtable_baseIcSt4pairIKciENS_10_Select1stESt8equal_toIcESt4hashIcENS_18_Mod_range_hashingENS_20_Default_ranged_hashENS_17_Hashtable_traitsILb0ELb0ELb1EEEE5_M_eqEv, symObjAddr: 0x226C, symBinAddr: 0x100005220, symSize: 0x1C }
  - { offsetInCU: 0xABE5, offset: 0xABE5, size: 0x8, addend: 0x0, symName: __ZSt11__addressofIPNSt8__detail15_Hash_node_baseEEPT_RS3_, symObjAddr: 0x2258, symBinAddr: 0x10000520C, symSize: 0x14 }
  - { offsetInCU: 0xAC15, offset: 0xAC15, size: 0x8, addend: 0x0, symName: __ZSt9addressofINSt8__detail10_Hash_nodeISt4pairIKciELb0EEEEPT_RS6_, symObjAddr: 0x223C, symBinAddr: 0x1000051F0, symSize: 0x1C }
  - { offsetInCU: 0xACDD, offset: 0xACDD, size: 0x8, addend: 0x0, symName: __ZNSt5tupleIJOcEEC1EOS1_, symObjAddr: 0x2214, symBinAddr: 0x1000051C8, symSize: 0x28 }
  - { offsetInCU: 0xAD49, offset: 0xAD49, size: 0x8, addend: 0x0, symName: __ZNSt10_Head_baseILm0EOcLb0EEC2IcEEOT_, symObjAddr: 0x21E4, symBinAddr: 0x100005198, symSize: 0x30 }
  - { offsetInCU: 0xAD69, offset: 0xAD69, size: 0x8, addend: 0x0, symName: __ZNKSt8__detail10_Select1stclIRKSt4pairIKciEEEONS0_10__1st_typeIT_E4typeEOS8_, symObjAddr: 0x21C4, symBinAddr: 0x100005178, symSize: 0x20 }
  - { offsetInCU: 0xADBF, offset: 0xADBF, size: 0x8, addend: 0x0, symName: __ZNSt8__detail16_Hashtable_allocISaINS_10_Hash_nodeISt4pairIKciELb0EEEEE19_M_allocate_bucketsEm, symObjAddr: 0x2114, symBinAddr: 0x1000050C8, symSize: 0xB0 }
  - { offsetInCU: 0xAEE4, offset: 0xAEE4, size: 0x8, addend: 0x0, symName: __ZNSt15__new_allocatorINSt8__detail10_Hash_nodeISt4pairIKciELb0EEEE10deallocateEPS5_m, symObjAddr: 0x20E4, symBinAddr: 0x100005098, symSize: 0x30 }
  - { offsetInCU: 0xAFB4, offset: 0xAFB4, size: 0x8, addend: 0x0, symName: __ZNSt5tupleIJRKcEEC1EOS2_, symObjAddr: 0x20BC, symBinAddr: 0x100005070, symSize: 0x28 }
  - { offsetInCU: 0xAFCD, offset: 0xAFCD, size: 0x8, addend: 0x0, symName: __ZNSt15__new_allocatorINSt8__detail10_Hash_nodeISt4pairIKciELb0EEEE8allocateEmPKv, symObjAddr: 0x2040, symBinAddr: 0x100004FF4, symSize: 0x7C }
  - { offsetInCU: 0xB05B, offset: 0xB05B, size: 0x8, addend: 0x0, symName: __ZN9__gnu_cxx16__aligned_bufferISt4pairIKciEE7_M_addrEv, symObjAddr: 0x202C, symBinAddr: 0x100004FE0, symSize: 0x14 }
  - { offsetInCU: 0xB082, offset: 0xB082, size: 0x8, addend: 0x0, symName: __ZNKSt8__detail15_Hashtable_baseIcSt4pairIKciENS_10_Select1stESt8equal_toIcESt4hashIcENS_18_Mod_range_hashingENS_20_Default_ranged_hashENS_17_Hashtable_traitsILb0ELb0ELb1EEEE13_M_key_equalsERS2_RKNS_16_Hash_node_valueIS3_Lb0EEE, symObjAddr: 0x1FC0, symBinAddr: 0x100004F74, symSize: 0x6C }
  - { offsetInCU: 0xB10F, offset: 0xB10F, size: 0x8, addend: 0x0, symName: __ZNSt8__detail15_Hashtable_baseIcSt4pairIKciENS_10_Select1stESt8equal_toIcESt4hashIcENS_18_Mod_range_hashingENS_20_Default_ranged_hashENS_17_Hashtable_traitsILb0ELb0ELb1EEEE9_S_equalsEmRKNS_21_Hash_node_code_cacheILb0EEE, symObjAddr: 0x1FA8, symBinAddr: 0x100004F5C, symSize: 0x18 }
  - { offsetInCU: 0xB13D, offset: 0xB13D, size: 0x8, addend: 0x0, symName: __ZNSt15__new_allocatorIPNSt8__detail15_Hash_node_baseEE10deallocateEPS2_m, symObjAddr: 0x1F78, symBinAddr: 0x100004F2C, symSize: 0x30 }
  - { offsetInCU: 0xB1DF, offset: 0xB1DF, size: 0x8, addend: 0x0, symName: __ZNSt15__new_allocatorIPNSt8__detail15_Hash_node_baseEED2Ev, symObjAddr: 0x1F64, symBinAddr: 0x100004F18, symSize: 0x14 }
  - { offsetInCU: 0xB1DE, offset: 0xB1DE, size: 0x8, addend: 0x0, symName: __ZSt9addressofIPNSt8__detail15_Hash_node_baseEEPT_RS3_, symObjAddr: 0x1F48, symBinAddr: 0x100004EFC, symSize: 0x1C }
  - { offsetInCU: 0xB20E, offset: 0xB20E, size: 0x8, addend: 0x0, symName: __ZNSt19__ptr_traits_ptr_toIPNSt8__detail10_Hash_nodeISt4pairIKciELb0EEES5_Lb0EE10pointer_toERS5_, symObjAddr: 0x1F2C, symBinAddr: 0x100004EE0, symSize: 0x1C }
  - { offsetInCU: 0xB264, offset: 0xB264, size: 0x8, addend: 0x0, symName: __ZNSt8__detail21_Hashtable_ebo_helperILi0ESaINS_10_Hash_nodeISt4pairIKciELb0EEEELb1EE6_M_getEv, symObjAddr: 0x1F18, symBinAddr: 0x100004ECC, symSize: 0x14 }
  - { offsetInCU: 0xB337, offset: 0xB337, size: 0x8, addend: 0x0, symName: __ZNSt11_Tuple_implILm0EJOcEEC2IcEEOT_, symObjAddr: 0x1EDC, symBinAddr: 0x100004E90, symSize: 0x3C }
  - { offsetInCU: 0xB3C3, offset: 0xB3C3, size: 0x8, addend: 0x0, symName: __ZNSt8__detail19_Node_iterator_baseISt4pairIKciELb0EEC2EPNS_10_Hash_nodeIS3_Lb0EEE, symObjAddr: 0x1EB8, symBinAddr: 0x100004E6C, symSize: 0x24 }
  - { offsetInCU: 0xB3A3, offset: 0xB3A3, size: 0x8, addend: 0x0, symName: __ZNKSt8__detail15_Hash_code_baseIcSt4pairIKciENS_10_Select1stESt4hashIcENS_18_Mod_range_hashingENS_20_Default_ranged_hashELb0EE15_M_bucket_indexERKNS_16_Hash_node_valueIS3_Lb0EEEm, symObjAddr: 0x1E54, symBinAddr: 0x100004E08, symSize: 0x64 }
  - { offsetInCU: 0xB434, offset: 0xB434, size: 0x8, addend: 0x0, symName: __ZNSt10_HashtableIcSt4pairIKciESaIS2_ENSt8__detail10_Select1stESt8equal_toIcESt4hashIcENS4_18_Mod_range_hashingENS4_20_Default_ranged_hashENS4_20_Prime_rehash_policyENS4_17_Hashtable_traitsILb0ELb0ELb1EEEE19_M_allocate_bucketsEm, symObjAddr: 0x1DFC, symBinAddr: 0x100004DB0, symSize: 0x58 }
  - { offsetInCU: 0xB469, offset: 0xB469, size: 0x8, addend: 0x0, symName: __ZSt11__addressofINSt8__detail20_Prime_rehash_policyEEPT_RS2_, symObjAddr: 0x1DE8, symBinAddr: 0x100004D9C, symSize: 0x14 }
  - { offsetInCU: 0xB523, offset: 0xB523, size: 0x8, addend: 0x0, symName: __ZSt12__to_addressINSt8__detail10_Hash_nodeISt4pairIKciELb0EEEEPT_S7_, symObjAddr: 0x1DD4, symBinAddr: 0x100004D88, symSize: 0x14 }
  - { offsetInCU: 0xB5C2, offset: 0xB5C2, size: 0x8, addend: 0x0, symName: __ZNSt10_Head_baseILm0ERKcLb0EEC2ES1_, symObjAddr: 0x1DB0, symBinAddr: 0x100004D64, symSize: 0x24 }
  - { offsetInCU: 0xB5D0, offset: 0xB5D0, size: 0x8, addend: 0x0, symName: __ZN9__gnu_cxx16__aligned_bufferISt4pairIKciEE6_M_ptrEv, symObjAddr: 0x1D94, symBinAddr: 0x100004D48, symSize: 0x1C }
  - { offsetInCU: 0xB5F9, offset: 0xB5F9, size: 0x8, addend: 0x0, symName: __ZNKSt10_HashtableIcSt4pairIKciESaIS2_ENSt8__detail10_Select1stESt8equal_toIcESt4hashIcENS4_18_Mod_range_hashingENS4_20_Default_ranged_hashENS4_20_Prime_rehash_policyENS4_17_Hashtable_traitsILb0ELb0ELb1EEEE15_M_bucket_indexERKNS4_16_Hash_node_valueIS2_Lb0EEE, symObjAddr: 0x1D64, symBinAddr: 0x100004D18, symSize: 0x30 }
  - { offsetInCU: 0xB632, offset: 0xB632, size: 0x8, addend: 0x0, symName: __ZNKSt8__detail15_Hashtable_baseIcSt4pairIKciENS_10_Select1stESt8equal_toIcESt4hashIcENS_18_Mod_range_hashingENS_20_Default_ranged_hashENS_17_Hashtable_traitsILb0ELb0ELb1EEEE9_M_equalsERS2_mRKNS_16_Hash_node_valueIS3_Lb0EEE, symObjAddr: 0x1D04, symBinAddr: 0x100004CB8, symSize: 0x60 }
  - { offsetInCU: 0xB68B, offset: 0xB68B, size: 0x8, addend: 0x0, symName: __ZNKSt8__detail21_Hashtable_ebo_helperILi1ESt4hashIcELb1EE7_M_cgetEv, symObjAddr: 0x1CF0, symBinAddr: 0x100004CA4, symSize: 0x14 }
  - { offsetInCU: 0xB724, offset: 0xB724, size: 0x8, addend: 0x0, symName: __ZNSt19__ptr_traits_ptr_toIPPNSt8__detail15_Hash_node_baseES2_Lb0EE10pointer_toERS2_, symObjAddr: 0x1CD4, symBinAddr: 0x100004C88, symSize: 0x1C }
  - { offsetInCU: 0xB74F, offset: 0xB74F, size: 0x8, addend: 0x0, symName: __ZNSt8__detail16_Hashtable_allocISaINS_10_Hash_nodeISt4pairIKciELb0EEEEE22_M_deallocate_node_ptrEPS5_, symObjAddr: 0x1C7C, symBinAddr: 0x100004C30, symSize: 0x58 }
  - { offsetInCU: 0xB7FC, offset: 0xB7FC, size: 0x8, addend: 0x0, symName: __ZNSt8__detail16_Hashtable_allocISaINS_10_Hash_nodeISt4pairIKciELb0EEEEE17_M_node_allocatorEv, symObjAddr: 0x1C60, symBinAddr: 0x100004C14, symSize: 0x1C }
  - { offsetInCU: 0xB825, offset: 0xB825, size: 0x8, addend: 0x0, symName: __ZNSt8__detail16_Hashtable_allocISaINS_10_Hash_nodeISt4pairIKciELb0EEEEE16_M_allocate_nodeIJRKSt21piecewise_construct_tSt5tupleIJOcEESC_IJEEEEEPS5_DpOT_, symObjAddr: 0x1A74, symBinAddr: 0x100004A28, symSize: 0x1EC }
  - { offsetInCU: 0xB9D8, offset: 0xB9D8, size: 0x8, addend: 0x0, symName: __ZSt7forwardISt5tupleIJOcEEEOT_RNSt16remove_referenceIS3_E4typeE, symObjAddr: 0x1A60, symBinAddr: 0x100004A14, symSize: 0x14 }
  - { offsetInCU: 0xBA69, offset: 0xBA69, size: 0x8, addend: 0x0, symName: __ZNSt5tupleIJOcEEC1IJcELb1ELb1EEEDpOT_, symObjAddr: 0x1A24, symBinAddr: 0x1000049D8, symSize: 0x3C }
  - { offsetInCU: 0xBA93, offset: 0xBA93, size: 0x8, addend: 0x0, symName: __ZSt7forwardIcEOT_RNSt16remove_referenceIS0_E4typeE, symObjAddr: 0x1A10, symBinAddr: 0x1000049C4, symSize: 0x14 }
  - { offsetInCU: 0xBB3C, offset: 0xBB3C, size: 0x8, addend: 0x0, symName: __ZNSt8__detail14_Node_iteratorISt4pairIKciELb0ELb0EEC1EPNS_10_Hash_nodeIS3_Lb0EEE, symObjAddr: 0x19E8, symBinAddr: 0x10000499C, symSize: 0x28 }
  - { offsetInCU: 0xBB1D, offset: 0xBB1D, size: 0x8, addend: 0x0, symName: __ZNSt10_HashtableIcSt4pairIKciESaIS2_ENSt8__detail10_Select1stESt8equal_toIcESt4hashIcENS4_18_Mod_range_hashingENS4_20_Default_ranged_hashENS4_20_Prime_rehash_policyENS4_17_Hashtable_traitsILb0ELb0ELb1EEEE22_M_insert_bucket_beginEmPNS4_10_Hash_nodeIS2_Lb0EEE, symObjAddr: 0x18DC, symBinAddr: 0x100004890, symSize: 0x10C }
  - { offsetInCU: 0xBB66, offset: 0xBB66, size: 0x8, addend: 0x0, symName: __ZNKSt8__detail15_Hash_code_baseIcSt4pairIKciENS_10_Select1stESt4hashIcENS_18_Mod_range_hashingENS_20_Default_ranged_hashELb0EE13_M_store_codeERNS_21_Hash_node_code_cacheILb0EEEm, symObjAddr: 0x18C0, symBinAddr: 0x100004874, symSize: 0x1C }
  - { offsetInCU: 0xBBA1, offset: 0xBBA1, size: 0x8, addend: 0x0, symName: __ZNSt10_HashtableIcSt4pairIKciESaIS2_ENSt8__detail10_Select1stESt8equal_toIcESt4hashIcENS4_18_Mod_range_hashingENS4_20_Default_ranged_hashENS4_20_Prime_rehash_policyENS4_17_Hashtable_traitsILb0ELb0ELb1EEEE9_M_rehashEmSt17integral_constantIbLb1EE, symObjAddr: 0x1754, symBinAddr: 0x100004708, symSize: 0x16C }
  - { offsetInCU: 0xBCAD, offset: 0xBCAD, size: 0x8, addend: 0x0, symName: __ZNSt8__detail17_RehashStateGuardINS_20_Prime_rehash_policyEED1Ev, symObjAddr: 0x1710, symBinAddr: 0x1000046C4, symSize: 0x44 }
  - { offsetInCU: 0xBCFD, offset: 0xBCFD, size: 0x8, addend: 0x0, symName: __ZNSt8__detail17_RehashStateGuardINS_20_Prime_rehash_policyEEC1ERS1_, symObjAddr: 0x16CC, symBinAddr: 0x100004680, symSize: 0x44 }
  - { offsetInCU: 0xBCEB, offset: 0xBCEB, size: 0x8, addend: 0x0, symName: __ZNSt8__detail16_Hashtable_allocISaINS_10_Hash_nodeISt4pairIKciELb0EEEEE16_M_allocate_nodeIJRKSt21piecewise_construct_tSt5tupleIJRS3_EESC_IJEEEEEPS5_DpOT_, symObjAddr: 0x14E0, symBinAddr: 0x100004494, symSize: 0x1EC }
  - { offsetInCU: 0xBEE7, offset: 0xBEE7, size: 0x8, addend: 0x0, symName: __ZNSt8__detail10_Hash_nodeISt4pairIKciELb0EEC1Ev, symObjAddr: 0x14C0, symBinAddr: 0x100004474, symSize: 0x20 }
  - { offsetInCU: 0xBEE2, offset: 0xBEE2, size: 0x8, addend: 0x0, symName: __ZSt7forwardISt5tupleIJEEEOT_RNSt16remove_referenceIS2_E4typeE, symObjAddr: 0x14AC, symBinAddr: 0x100004460, symSize: 0x14 }
  - { offsetInCU: 0xBF18, offset: 0xBF18, size: 0x8, addend: 0x0, symName: __ZSt7forwardISt5tupleIJRKcEEEOT_RNSt16remove_referenceIS4_E4typeE, symObjAddr: 0x1498, symBinAddr: 0x10000444C, symSize: 0x14 }
  - { offsetInCU: 0xBF4E, offset: 0xBF4E, size: 0x8, addend: 0x0, symName: __ZSt7forwardIRKSt21piecewise_construct_tEOT_RNSt16remove_referenceIS3_E4typeE, symObjAddr: 0x1484, symBinAddr: 0x100004438, symSize: 0x14 }
  - { offsetInCU: 0xBFC9, offset: 0xBFC9, size: 0x8, addend: 0x0, symName: __ZNSt11_Tuple_implILm0EJRKcEEC2ES1_, symObjAddr: 0x145C, symBinAddr: 0x100004410, symSize: 0x28 }
  - { offsetInCU: 0xBFED, offset: 0xBFED, size: 0x8, addend: 0x0, symName: __ZNKSt10_HashtableIcSt4pairIKciESaIS2_ENSt8__detail10_Select1stESt8equal_toIcESt4hashIcENS4_18_Mod_range_hashingENS4_20_Default_ranged_hashENS4_20_Prime_rehash_policyENS4_17_Hashtable_traitsILb0ELb0ELb1EEEE19_M_find_before_nodeEmRS1_m, symObjAddr: 0x1360, symBinAddr: 0x100004314, symSize: 0xFC }
  - { offsetInCU: 0xC07B, offset: 0xC07B, size: 0x8, addend: 0x0, symName: __ZNKSt8__detail15_Hash_code_baseIcSt4pairIKciENS_10_Select1stESt4hashIcENS_18_Mod_range_hashingENS_20_Default_ranged_hashELb0EE15_M_bucket_indexEmm, symObjAddr: 0x1334, symBinAddr: 0x1000042E8, symSize: 0x2C }
  - { offsetInCU: 0xC0C4, offset: 0xC0C4, size: 0x8, addend: 0x0, symName: __ZNKSt8__detail15_Hash_code_baseIcSt4pairIKciENS_10_Select1stESt4hashIcENS_18_Mod_range_hashingENS_20_Default_ranged_hashELb0EE7_M_hashEv, symObjAddr: 0x1318, symBinAddr: 0x1000042CC, symSize: 0x1C }
  - { offsetInCU: 0xC0ED, offset: 0xC0ED, size: 0x8, addend: 0x0, symName: __ZNSt8__detail16_Hashtable_allocISaINS_10_Hash_nodeISt4pairIKciELb0EEEEE21_M_deallocate_bucketsEPPNS_15_Hash_node_baseEm, symObjAddr: 0x12A0, symBinAddr: 0x100004254, symSize: 0x78 }
  - { offsetInCU: 0xC1FA, offset: 0xC1FA, size: 0x8, addend: 0x0, symName: __ZNKSt10_HashtableIcSt4pairIKciESaIS2_ENSt8__detail10_Select1stESt8equal_toIcESt4hashIcENS4_18_Mod_range_hashingENS4_20_Default_ranged_hashENS4_20_Prime_rehash_policyENS4_17_Hashtable_traitsILb0ELb0ELb1EEEE21_M_uses_single_bucketEPPNS4_15_Hash_node_baseE, symObjAddr: 0x1264, symBinAddr: 0x100004218, symSize: 0x3C }
  - { offsetInCU: 0xC233, offset: 0xC233, size: 0x8, addend: 0x0, symName: __ZNSt8__detail16_Hashtable_allocISaINS_10_Hash_nodeISt4pairIKciELb0EEEEE18_M_deallocate_nodeEPS5_, symObjAddr: 0x11F0, symBinAddr: 0x1000041A4, symSize: 0x74 }
  - { offsetInCU: 0xC2EA, offset: 0xC2EA, size: 0x8, addend: 0x0, symName: __ZNKSt8__detail10_Hash_nodeISt4pairIKciELb0EE7_M_nextEv, symObjAddr: 0x11D8, symBinAddr: 0x10000418C, symSize: 0x18 }
  - { offsetInCU: 0xC4E1, offset: 0xC4E1, size: 0x8, addend: 0x0, symName: __ZNSt10_HashtableIcSt4pairIKciESaIS2_ENSt8__detail10_Select1stESt8equal_toIcESt4hashIcENS4_18_Mod_range_hashingENS4_20_Default_ranged_hashENS4_20_Prime_rehash_policyENS4_17_Hashtable_traitsILb0ELb0ELb1EEEE12_Scoped_nodeC1IJRKSt21piecewise_construct_tSt5tupleIJOcEESL_IJEEEEEPNS4_16_Hashtable_allocISaINS4_10_Hash_nodeIS2_Lb0EEEEEEDpOT_, symObjAddr: 0x1150, symBinAddr: 0x100004104, symSize: 0x88 }
  - { offsetInCU: 0xC3F7, offset: 0xC3F7, size: 0x8, addend: 0x0, symName: __ZSt16forward_as_tupleIJcEESt5tupleIJDpOT_EES3_, symObjAddr: 0x1118, symBinAddr: 0x1000040CC, symSize: 0x38 }
  - { offsetInCU: 0xC42E, offset: 0xC42E, size: 0x8, addend: 0x0, symName: __ZNKSt8__detail14_Node_iteratorISt4pairIKciELb0ELb0EEptEv, symObjAddr: 0x10E8, symBinAddr: 0x10000409C, symSize: 0x30 }
  - { offsetInCU: 0xC47B, offset: 0xC47B, size: 0x8, addend: 0x0, symName: __ZNSt10_HashtableIcSt4pairIKciESaIS2_ENSt8__detail10_Select1stESt8equal_toIcESt4hashIcENS4_18_Mod_range_hashingENS4_20_Default_ranged_hashENS4_20_Prime_rehash_policyENS4_17_Hashtable_traitsILb0ELb0ELb1EEEE21_M_insert_unique_nodeEmmPNS4_10_Hash_nodeIS2_Lb0EEEm, symObjAddr: 0xFD8, symBinAddr: 0x100003F8C, symSize: 0x110 }
  - { offsetInCU: 0xC608, offset: 0xC608, size: 0x8, addend: 0x0, symName: __ZNSt10_HashtableIcSt4pairIKciESaIS2_ENSt8__detail10_Select1stESt8equal_toIcESt4hashIcENS4_18_Mod_range_hashingENS4_20_Default_ranged_hashENS4_20_Prime_rehash_policyENS4_17_Hashtable_traitsILb0ELb0ELb1EEEE12_Scoped_nodeD1Ev, symObjAddr: 0xF94, symBinAddr: 0x100003F48, symSize: 0x44 }
  - { offsetInCU: 0xC6F2, offset: 0xC6F2, size: 0x8, addend: 0x0, symName: __ZNSt10_HashtableIcSt4pairIKciESaIS2_ENSt8__detail10_Select1stESt8equal_toIcESt4hashIcENS4_18_Mod_range_hashingENS4_20_Default_ranged_hashENS4_20_Prime_rehash_policyENS4_17_Hashtable_traitsILb0ELb0ELb1EEEE12_Scoped_nodeC1IJRKSt21piecewise_construct_tSt5tupleIJRS1_EESL_IJEEEEEPNS4_16_Hashtable_allocISaINS4_10_Hash_nodeIS2_Lb0EEEEEEDpOT_, symObjAddr: 0xF0C, symBinAddr: 0x100003EC0, symSize: 0x88 }
  - { offsetInCU: 0xC65A, offset: 0xC65A, size: 0x8, addend: 0x0, symName: __ZNSt5tupleIJRKcEEC1ILb1ELb1EEES1_, symObjAddr: 0xEE4, symBinAddr: 0x100003E98, symSize: 0x28 }
  - { offsetInCU: 0xC689, offset: 0xC689, size: 0x8, addend: 0x0, symName: __ZNKSt10_HashtableIcSt4pairIKciESaIS2_ENSt8__detail10_Select1stESt8equal_toIcESt4hashIcENS4_18_Mod_range_hashingENS4_20_Default_ranged_hashENS4_20_Prime_rehash_policyENS4_17_Hashtable_traitsILb0ELb0ELb1EEEE12_M_find_nodeEmRS1_m, symObjAddr: 0xE90, symBinAddr: 0x100003E44, symSize: 0x54 }
  - { offsetInCU: 0xC6F3, offset: 0xC6F3, size: 0x8, addend: 0x0, symName: __ZNKSt10_HashtableIcSt4pairIKciESaIS2_ENSt8__detail10_Select1stESt8equal_toIcESt4hashIcENS4_18_Mod_range_hashingENS4_20_Default_ranged_hashENS4_20_Prime_rehash_policyENS4_17_Hashtable_traitsILb0ELb0ELb1EEEE15_M_bucket_indexEm, symObjAddr: 0xE60, symBinAddr: 0x100003E14, symSize: 0x30 }
  - { offsetInCU: 0xC72C, offset: 0xC72C, size: 0x8, addend: 0x0, symName: __ZNKSt8__detail15_Hash_code_baseIcSt4pairIKciENS_10_Select1stESt4hashIcENS_18_Mod_range_hashingENS_20_Default_ranged_hashELb0EE12_M_hash_codeERS2_, symObjAddr: 0xE28, symBinAddr: 0x100003DDC, symSize: 0x38 }
  - { offsetInCU: 0xC765, offset: 0xC765, size: 0x8, addend: 0x0, symName: __ZNSt10_HashtableIcSt4pairIKciESaIS2_ENSt8__detail10_Select1stESt8equal_toIcESt4hashIcENS4_18_Mod_range_hashingENS4_20_Default_ranged_hashENS4_20_Prime_rehash_policyENS4_17_Hashtable_traitsILb0ELb0ELb1EEEE21_M_deallocate_bucketsEPPNS4_15_Hash_node_baseEm, symObjAddr: 0xDDC, symBinAddr: 0x100003D90, symSize: 0x4C }
  - { offsetInCU: 0xC7AE, offset: 0xC7AE, size: 0x8, addend: 0x0, symName: __ZNSt8__detail16_Hashtable_allocISaINS_10_Hash_nodeISt4pairIKciELb0EEEEE19_M_deallocate_nodesEPS5_, symObjAddr: 0xD8C, symBinAddr: 0x100003D40, symSize: 0x50 }
  - { offsetInCU: 0xC80B, offset: 0xC80B, size: 0x8, addend: 0x0, symName: __ZNKSt10_HashtableIcSt4pairIKciESaIS2_ENSt8__detail10_Select1stESt8equal_toIcESt4hashIcENS4_18_Mod_range_hashingENS4_20_Default_ranged_hashENS4_20_Prime_rehash_policyENS4_17_Hashtable_traitsILb0ELb0ELb1EEEE8_M_beginEv, symObjAddr: 0xD74, symBinAddr: 0x100003D28, symSize: 0x18 }
  - { offsetInCU: 0xC874, offset: 0xC874, size: 0x8, addend: 0x0, symName: __ZNSt8__detail9_Map_baseIcSt4pairIKciESaIS3_ENS_10_Select1stESt8equal_toIcESt4hashIcENS_18_Mod_range_hashingENS_20_Default_ranged_hashENS_20_Prime_rehash_policyENS_17_Hashtable_traitsILb0ELb0ELb1EEELb1EEixEOc, symObjAddr: 0xC44, symBinAddr: 0x100003BF8, symSize: 0x130 }
  - { offsetInCU: 0xC97A, offset: 0xC97A, size: 0x8, addend: 0x0, symName: __ZSt4moveIRcEONSt16remove_referenceIT_E4typeEOS2_, symObjAddr: 0xC30, symBinAddr: 0x100003BE4, symSize: 0x14 }
  - { offsetInCU: 0xC9AE, offset: 0xC9AE, size: 0x8, addend: 0x0, symName: __ZNKSt10_HashtableIcSt4pairIKciESaIS2_ENSt8__detail10_Select1stESt8equal_toIcESt4hashIcENS4_18_Mod_range_hashingENS4_20_Default_ranged_hashENS4_20_Prime_rehash_policyENS4_17_Hashtable_traitsILb0ELb0ELb1EEEE4sizeEv, symObjAddr: 0xC18, symBinAddr: 0x100003BCC, symSize: 0x18 }
  - { offsetInCU: 0xC9D7, offset: 0xC9D7, size: 0x8, addend: 0x0, symName: __ZNSt8__detail9_Map_baseIcSt4pairIKciESaIS3_ENS_10_Select1stESt8equal_toIcESt4hashIcENS_18_Mod_range_hashingENS_20_Default_ranged_hashENS_20_Prime_rehash_policyENS_17_Hashtable_traitsILb0ELb0ELb1EEELb1EEixERS2_, symObjAddr: 0xAF8, symBinAddr: 0x100003AAC, symSize: 0x120 }
  - { offsetInCU: 0xCAD5, offset: 0xCAD5, size: 0x8, addend: 0x0, symName: __ZNSt10_HashtableIcSt4pairIKciESaIS2_ENSt8__detail10_Select1stESt8equal_toIcESt4hashIcENS4_18_Mod_range_hashingENS4_20_Default_ranged_hashENS4_20_Prime_rehash_policyENS4_17_Hashtable_traitsILb0ELb0ELb1EEEE21_M_deallocate_bucketsEv, symObjAddr: 0xAC4, symBinAddr: 0x100003A78, symSize: 0x34 }
  - { offsetInCU: 0xCAFE, offset: 0xCAFE, size: 0x8, addend: 0x0, symName: __ZNSt10_HashtableIcSt4pairIKciESaIS2_ENSt8__detail10_Select1stESt8equal_toIcESt4hashIcENS4_18_Mod_range_hashingENS4_20_Default_ranged_hashENS4_20_Prime_rehash_policyENS4_17_Hashtable_traitsILb0ELb0ELb1EEEE5clearEv, symObjAddr: 0xA64, symBinAddr: 0x100003A18, symSize: 0x60 }
  - { offsetInCU: 0xCB8E, offset: 0xCB8E, size: 0x8, addend: 0x0, symName: __ZNSt15__new_allocatorINSt8__detail10_Hash_nodeISt4pairIKciELb0EEEED2Ev, symObjAddr: 0xA50, symBinAddr: 0x100003A04, symSize: 0x14 }
  - { offsetInCU: 0xCB85, offset: 0xCB85, size: 0x8, addend: 0x0, symName: __ZNSt7__cxx1112basic_stringIcSt11char_traitsIcESaIcEE12_M_constructIPKcEEvT_S8_St20forward_iterator_tag, symObjAddr: 0x950, symBinAddr: 0x100003904, symSize: 0x100 }
  - { offsetInCU: 0xCCFF, offset: 0xCCFF, size: 0x8, addend: 0x0, symName: __ZZNSt7__cxx1112basic_stringIcSt11char_traitsIcESaIcEE12_M_constructIPKcEEvT_S8_St20forward_iterator_tagEN6_GuardC1EPS4_, symObjAddr: 0x8F8, symBinAddr: 0x1000038AC, symSize: 0x24 }
  - { offsetInCU: 0xCD30, offset: 0xCD30, size: 0x8, addend: 0x0, symName: __ZZNSt7__cxx1112basic_stringIcSt11char_traitsIcESaIcEE12_M_constructIPKcEEvT_S8_St20forward_iterator_tagEN6_GuardD1Ev, symObjAddr: 0x91C, symBinAddr: 0x1000038D0, symSize: 0x34 }
  - { offsetInCU: 0xCDD6, offset: 0xCDD6, size: 0x8, addend: 0x0, symName: __ZNSt15__new_allocatorIcED2Ev, symObjAddr: 0x8E4, symBinAddr: 0x100003898, symSize: 0x14 }
  - { offsetInCU: 0xCE1E, offset: 0xCE1E, size: 0x8, addend: 0x0, symName: __ZN9__gnu_cxx11char_traitsIcE2eqERKcS3_, symObjAddr: 0x8B4, symBinAddr: 0x100003868, symSize: 0x30 }
  - { offsetInCU: 0xCEE0, offset: 0xCEE0, size: 0x8, addend: 0x0, symName: __ZNSt7__cxx1112basic_stringIcSt11char_traitsIcESaIcEEC1IS3_EEPKcRKS3_, symObjAddr: 0x818, symBinAddr: 0x1000037CC, symSize: 0x9C }
  - { offsetInCU: 0xCF03, offset: 0xCF03, size: 0x8, addend: 0x0, symName: __ZNSt13unordered_mapIciSt4hashIcESt8equal_toIcESaISt4pairIKciEEEixEOc, symObjAddr: 0x7E0, symBinAddr: 0x100003794, symSize: 0x38 }
  - { offsetInCU: 0xCF3C, offset: 0xCF3C, size: 0x8, addend: 0x0, symName: __ZNKSt13unordered_mapIciSt4hashIcESt8equal_toIcESaISt4pairIKciEEE4sizeEv, symObjAddr: 0x7C4, symBinAddr: 0x100003778, symSize: 0x1C }
  - { offsetInCU: 0xCF65, offset: 0xCF65, size: 0x8, addend: 0x0, symName: __ZNSt13unordered_mapIciSt4hashIcESt8equal_toIcESaISt4pairIKciEEEixERS5_, symObjAddr: 0x7A0, symBinAddr: 0x100003754, symSize: 0x24 }
  - { offsetInCU: 0xD08F, offset: 0xD08F, size: 0x8, addend: 0x0, symName: __ZNSt10_HashtableIcSt4pairIKciESaIS2_ENSt8__detail10_Select1stESt8equal_toIcESt4hashIcENS4_18_Mod_range_hashingENS4_20_Default_ranged_hashENS4_20_Prime_rehash_policyENS4_17_Hashtable_traitsILb0ELb0ELb1EEEED1Ev, symObjAddr: 0x770, symBinAddr: 0x100003724, symSize: 0x30 }
  - { offsetInCU: 0xD075, offset: 0xD075, size: 0x8, addend: 0x0, symName: __ZNSt8__detail21_Hashtable_ebo_helperILi0ESaINS_10_Hash_nodeISt4pairIKciELb0EEEELb1EEC2Ev, symObjAddr: 0x744, symBinAddr: 0x1000036F8, symSize: 0x2C }
  - { offsetInCU: 0xD0E3, offset: 0xD0E3, size: 0x8, addend: 0x0, symName: __ZNSt8__detail21_Hashtable_ebo_helperILi0ESt8equal_toIcELb1EEC2Ev, symObjAddr: 0x730, symBinAddr: 0x1000036E4, symSize: 0x14 }
  - { offsetInCU: 0xD11E, offset: 0xD11E, size: 0x8, addend: 0x0, symName: __ZNSt8__detail21_Hashtable_ebo_helperILi1ESt4hashIcELb1EEC2Ev, symObjAddr: 0x71C, symBinAddr: 0x1000036D0, symSize: 0x14 }
  - { offsetInCU: 0xD1A9, offset: 0xD1A9, size: 0x8, addend: 0x0, symName: __ZNSt7__cxx1112basic_stringIcSt11char_traitsIcESaIcEE12_Alloc_hiderD1Ev, symObjAddr: 0x6F0, symBinAddr: 0x1000036A4, symSize: 0x2C }
  - { offsetInCU: 0xD1AA, offset: 0xD1AA, size: 0x8, addend: 0x0, symName: __ZN9__gnu_cxx11char_traitsIcE6lengthEPKc, symObjAddr: 0x698, symBinAddr: 0x10000364C, symSize: 0x58 }
  - { offsetInCU: 0xD1EA, offset: 0xD1EA, size: 0x8, addend: 0x0, symName: _main, symObjAddr: 0x518, symBinAddr: 0x1000034CC, symSize: 0x180 }
  - { offsetInCU: 0xD36E, offset: 0xD36E, size: 0x8, addend: 0x0, symName: __ZN8Solution9isAnagramENSt7__cxx1112basic_stringIcSt11char_traitsIcESaIcEEES5_, symObjAddr: 0x370, symBinAddr: 0x100003324, symSize: 0x1A8 }
  - { offsetInCU: 0xD4AA, offset: 0xD4AA, size: 0x8, addend: 0x0, symName: __ZNSt13unordered_mapIciSt4hashIcESt8equal_toIcESaISt4pairIKciEEED1Ev, symObjAddr: 0x350, symBinAddr: 0x100003304, symSize: 0x20 }
  - { offsetInCU: 0xD4E9, offset: 0xD4E9, size: 0x8, addend: 0x0, symName: __ZNSt13unordered_mapIciSt4hashIcESt8equal_toIcESaISt4pairIKciEEEC1Ev, symObjAddr: 0x330, symBinAddr: 0x1000032E4, symSize: 0x20 }
  - { offsetInCU: 0xD5B5, offset: 0xD5B5, size: 0x8, addend: 0x0, symName: __ZNSt10_HashtableIcSt4pairIKciESaIS2_ENSt8__detail10_Select1stESt8equal_toIcESt4hashIcENS4_18_Mod_range_hashingENS4_20_Default_ranged_hashENS4_20_Prime_rehash_policyENS4_17_Hashtable_traitsILb0ELb0ELb1EEEEC1Ev, symObjAddr: 0x2C0, symBinAddr: 0x100003274, symSize: 0x70 }
  - { offsetInCU: 0xD57E, offset: 0xD57E, size: 0x8, addend: 0x0, symName: __ZNSt8__detail16_Hashtable_allocISaINS_10_Hash_nodeISt4pairIKciELb0EEEEED2Ev, symObjAddr: 0x2A0, symBinAddr: 0x100003254, symSize: 0x20 }
  - { offsetInCU: 0xD5BD, offset: 0xD5BD, size: 0x8, addend: 0x0, symName: __ZNSt8__detail16_Hashtable_allocISaINS_10_Hash_nodeISt4pairIKciELb0EEEEEC2Ev, symObjAddr: 0x280, symBinAddr: 0x100003234, symSize: 0x20 }
  - { offsetInCU: 0xD618, offset: 0xD618, size: 0x8, addend: 0x0, symName: __ZNSt8__detail21_Hashtable_ebo_helperILi0ESaINS_10_Hash_nodeISt4pairIKciELb0EEEELb1EED2Ev, symObjAddr: 0x254, symBinAddr: 0x100003208, symSize: 0x2C }
  - { offsetInCU: 0xD6D3, offset: 0xD6D3, size: 0x8, addend: 0x0, symName: __ZNSt8__detail15_Hashtable_baseIcSt4pairIKciENS_10_Select1stESt8equal_toIcESt4hashIcENS_18_Mod_range_hashingENS_20_Default_ranged_hashENS_17_Hashtable_traitsILb0ELb0ELb1EEEEC2Ev, symObjAddr: 0x22C, symBinAddr: 0x1000031E0, symSize: 0x28 }
  - { offsetInCU: 0xD6E3, offset: 0xD6E3, size: 0x8, addend: 0x0, symName: __ZNSt8__detail15_Hash_code_baseIcSt4pairIKciENS_10_Select1stESt4hashIcENS_18_Mod_range_hashingENS_20_Default_ranged_hashELb0EEC2Ev, symObjAddr: 0x20C, symBinAddr: 0x1000031C0, symSize: 0x20 }
  - { offsetInCU: 0xD68A, offset: 0xD68A, size: 0x8, addend: 0x0, symName: __ZNSt8__detail20_Prime_rehash_policy8_M_resetEm, symObjAddr: 0x1E8, symBinAddr: 0x10000319C, symSize: 0x24 }
  - { offsetInCU: 0xD6C3, offset: 0xD6C3, size: 0x8, addend: 0x0, symName: __ZNKSt8__detail20_Prime_rehash_policy8_M_stateEv, symObjAddr: 0x1D0, symBinAddr: 0x100003184, symSize: 0x18 }
  - { offsetInCU: 0xD738, offset: 0xD738, size: 0x8, addend: 0x0, symName: __ZNSt8__detail20_Prime_rehash_policyC1Ef, symObjAddr: 0x1A4, symBinAddr: 0x100003158, symSize: 0x2C }
  - { offsetInCU: 0xD742, offset: 0xD742, size: 0x8, addend: 0x0, symName: __ZNKSt8__detail18_Mod_range_hashingclEmm, symObjAddr: 0x174, symBinAddr: 0x100003128, symSize: 0x30 }
  - { offsetInCU: 0xD7C4, offset: 0xD7C4, size: 0x8, addend: 0x0, symName: __ZNSt8__detail15_Hash_node_baseC1Ev, symObjAddr: 0x158, symBinAddr: 0x10000310C, symSize: 0x1C }
  - { offsetInCU: 0xD7EE, offset: 0xD7EE, size: 0x8, addend: 0x0, symName: __ZNSt8__detail15_Hash_node_baseC2Ev, symObjAddr: 0x13C, symBinAddr: 0x1000030F0, symSize: 0x1C }
  - { offsetInCU: 0xD7F0, offset: 0xD7F0, size: 0x8, addend: 0x0, symName: __ZSt9boolalphaRSt8ios_base, symObjAddr: 0x118, symBinAddr: 0x1000030CC, symSize: 0x24 }
  - { offsetInCU: 0xD827, offset: 0xD827, size: 0x8, addend: 0x0, symName: __ZNSt8ios_base4setfESt13_Ios_Fmtflags, symObjAddr: 0xE0, symBinAddr: 0x100003094, symSize: 0x38 }
  - { offsetInCU: 0xD879, offset: 0xD879, size: 0x8, addend: 0x0, symName: __ZStoRRSt13_Ios_FmtflagsS_, symObjAddr: 0xA8, symBinAddr: 0x10000305C, symSize: 0x38 }
  - { offsetInCU: 0xD8AF, offset: 0xD8AF, size: 0x8, addend: 0x0, symName: __ZStorSt13_Ios_FmtflagsS_, symObjAddr: 0x88, symBinAddr: 0x10000303C, symSize: 0x20 }
  - { offsetInCU: 0xD8E9, offset: 0xD8E9, size: 0x8, addend: 0x0, symName: __ZNKSt4hashIcEclEc, symObjAddr: 0x6C, symBinAddr: 0x100003020, symSize: 0x1C }
  - { offsetInCU: 0xD91D, offset: 0xD91D, size: 0x8, addend: 0x0, symName: __ZNSt11char_traitsIcE6lengthEPKc, symObjAddr: 0x30, symBinAddr: 0x100002FE4, symSize: 0x3C }
  - { offsetInCU: 0xD96C, offset: 0xD96C, size: 0x8, addend: 0x0, symName: __ZdlPvS_, symObjAddr: 0x18, symBinAddr: 0x100002FCC, symSize: 0x18 }
  - { offsetInCU: 0xD9A1, offset: 0xD9A1, size: 0x8, addend: 0x0, symName: __ZnwmPv, symObjAddr: 0x0, symBinAddr: 0x100002FB4, symSize: 0x18 }
...
